Certificate:
    Data:
        Version: 3 (0x2)
        Serial Number: 4098 (0x1002)
    Signature Algorithm: sha256WithRSAEncryption
        Issuer: C=BE, ST=Belgique, L=Namur, O=CA Inter, CN=Intermediate CA
        Validity
            Not Before: Jun 12 14:59:58 2025 GMT
            Not After : Jun 12 14:59:58 2026 GMT
        Subject: CN=MTLS.localhost
        Subject Public Key Info:
            Public Key Algorithm: rsaEncryption
                RSA Public-Key: (2048 bit)
                Modulus:
                    00:d7:be:4a:27:9b:e3:5c:34:0b:86:ce:2b:ae:28:
                    34:8b:fc:c1:42:a9:c6:b6:e9:22:b9:52:10:f6:33:
                    1b:8f:df:68:9b:0a:a7:8b:e0:bc:5d:f5:91:e0:59:
                    e7:3a:8d:b3:12:9c:1c:e8:fb:6a:00:ff:4c:2c:98:
                    f9:b2:bc:4d:1c:c4:20:8f:15:cf:c1:de:79:b8:12:
                    01:74:c3:d0:c8:29:36:c5:ed:49:61:e2:98:79:f7:
                    e2:23:89:c3:10:78:fc:b9:18:30:3c:35:e3:85:dc:
                    f4:22:ab:cc:95:7b:5a:4e:08:2d:03:24:63:5d:91:
                    49:f0:c8:6d:68:ce:3b:07:20:5d:11:ba:99:70:07:
                    7f:3e:94:12:db:0f:7c:23:26:54:07:56:e5:e9:c1:
                    a1:bd:a7:f1:5f:01:4d:bd:04:52:cd:e7:b8:4f:0a:
                    3b:c3:5f:74:f8:c3:b5:6c:c6:ba:df:f4:28:7c:75:
                    fb:4c:8d:6f:4a:c5:0a:a8:19:c6:d6:5a:6a:80:c4:
                    eb:52:f5:09:92:39:a2:fb:42:6c:b3:9b:95:32:07:
                    61:a4:f6:0d:00:f7:3c:3c:79:90:9b:7c:58:0d:69:
                    f3:5a:51:fc:2b:40:16:d3:74:20:59:89:c1:3a:ca:
                    c9:26:23:ae:6e:b1:d5:00:03:db:3a:da:4d:3d:4d:
                    32:61
                Exponent: 65537 (0x10001)
        X509v3 extensions:
            X509v3 Basic Constraints: 
                CA:FALSE
            X509v3 Key Usage: critical
                Digital Signature, Key Encipherment
            X509v3 Extended Key Usage: 
                TLS Web Server Authentication
            X509v3 Subject Key Identifier: 
                92:FC:3D:93:EB:68:B5:BA:92:13:EB:EC:4B:00:FE:53:BA:8D:4F:74
            X509v3 Authority Key Identifier: 
                keyid:6F:17:1D:0E:D3:9F:F2:02:36:CC:88:BE:DA:31:0C:B1:E4:AB:8A:B8

            X509v3 Subject Alternative Name: 
                DNS:localhost, DNS:host.docker.internal
    Signature Algorithm: sha256WithRSAEncryption
         96:04:0f:e0:c6:a8:4e:de:72:6e:c4:5b:30:4f:63:74:06:36:
         45:15:f5:5b:c2:15:e4:93:69:44:ee:4c:ad:a3:a6:6f:e1:b4:
         8f:2c:b1:1d:0d:23:d8:ad:b1:1d:75:5b:42:a5:f2:f6:38:1b:
         6b:03:81:e6:51:03:5a:07:60:13:1b:d4:95:36:a5:e4:29:c0:
         2b:8e:3e:1e:52:85:54:75:3c:fd:e9:ac:7b:eb:3e:3e:98:51:
         0c:c8:04:48:a9:71:51:1e:fa:bb:04:80:cd:e3:63:34:1b:3c:
         20:b5:32:59:86:33:ee:e2:ab:ba:6e:22:1c:84:cb:f3:76:bf:
         b2:c8:df:89:65:c0:3b:63:ed:83:bb:df:e5:5d:b6:98:dc:f6:
         4e:4e:76:a9:9f:08:e0:6b:85:56:66:da:17:54:af:cb:99:80:
         f3:78:8a:af:39:95:c5:e7:ed:b1:12:c5:19:eb:0e:d3:2f:cd:
         7d:0c:f4:66:3d:9a:22:8d:4f:4c:2e:6e:78:77:e7:f6:ee:38:
         c8:6a:54:40:e3:cf:50:9f:78:42:6c:c3:9d:5d:27:38:e1:94:
         77:db:f0:75:0e:15:53:a1:9b:b2:46:7c:45:14:7e:c3:5b:af:
         65:6b:27:77:aa:21:8f:c2:aa:5e:d9:f1:44:9b:c6:23:a6:ef:
         75:41:0a:f1:47:77:5d:9a:47:4a:d5:bf:89:ee:75:9d:f3:5c:
         af:af:59:6a:c6:b7:b4:03:32:84:2f:07:d5:3b:96:a0:e1:bd:
         7b:84:1d:68:d6:4a:0e:1c:41:14:32:0f:78:42:dd:d1:7b:82:
         f4:c9:25:04:d7:af:85:20:3f:6d:c7:b8:2a:01:ab:10:f9:2a:
         e4:98:6f:eb:74:10:dc:d8:3f:c3:4f:c7:1e:b7:43:a2:23:4a:
         49:e9:bf:f1:b8:0f:35:40:8e:2f:19:4b:c7:30:97:22:5e:be:
         11:55:1d:84:23:82:5a:73:82:f9:65:99:14:5e:79:83:74:b1:
         5e:f8:36:68:54:5d:d3:b3:4e:fd:bf:2f:75:5a:4d:cd:2a:ec:
         4e:fd:8e:6e:36:d0:f5:08:73:fd:7c:94:b1:e7:91:79:c9:73:
         18:de:a6:de:30:39:45:9a:c7:e4:e2:d2:eb:c7:da:a3:1a:83:
         b4:5e:ea:50:7f:07:ad:00:cc:cc:5e:39:d6:02:fa:e1:fa:44:
         8b:ca:6f:68:4b:e3:1b:20:a5:20:49:1a:64:90:e3:07:a7:2f:
         31:03:05:d4:58:d7:35:e2:fd:03:8c:06:ea:4c:06:74:87:e8:
         64:f2:7c:44:f0:5a:99:a1:5f:00:51:ad:e1:fb:f9:1c:27:8d:
         e7:fe:35:13:1a:d1:ac:5a
-----BEGIN CERTIFICATE-----
MIIEkjCCAnqgAwIBAgICEAIwDQYJKoZIhvcNAQELBQAwXTELMAkGA1UEBhMCQkUx
ETAPBgNVBAgMCEJlbGdpcXVlMQ4wDAYDVQQHDAVOYW11cjERMA8GA1UECgwIQ0Eg
SW50ZXIxGDAWBgNVBAMMD0ludGVybWVkaWF0ZSBDQTAeFw0yNTA2MTIxNDU5NTha
Fw0yNjA2MTIxNDU5NThaMBkxFzAVBgNVBAMMDk1UTFMubG9jYWxob3N0MIIBIjAN
BgkqhkiG9w0BAQEFAAOCAQ8AMIIBCgKCAQEA175KJ5vjXDQLhs4rrig0i/zBQqnG
tukiuVIQ9jMbj99omwqni+C8XfWR4FnnOo2zEpwc6PtqAP9MLJj5srxNHMQgjxXP
wd55uBIBdMPQyCk2xe1JYeKYeffiI4nDEHj8uRgwPDXjhdz0IqvMlXtaTggtAyRj
XZFJ8MhtaM47ByBdEbqZcAd/PpQS2w98IyZUB1bl6cGhvafxXwFNvQRSzee4Two7
w190+MO1bMa63/QofHX7TI1vSsUKqBnG1lpqgMTrUvUJkjmi+0Jss5uVMgdhpPYN
APc8PHmQm3xYDWnzWlH8K0AW03QgWYnBOsrJJiOubrHVAAPbOtpNPU0yYQIDAQAB
o4GfMIGcMAkGA1UdEwQCMAAwDgYDVR0PAQH/BAQDAgWgMBMGA1UdJQQMMAoGCCsG
AQUFBwMBMB0GA1UdDgQWBBSS/D2T62i1upIT6+xLAP5Tuo1PdDAfBgNVHSMEGDAW
gBRvFx0O05/yAjbMiL7aMQyx5KuKuDAqBgNVHREEIzAhgglsb2NhbGhvc3SCFGhv
c3QuZG9ja2VyLmludGVybmFsMA0GCSqGSIb3DQEBCwUAA4ICAQCWBA/gxqhO3nJu
xFswT2N0BjZFFfVbwhXkk2lE7kyto6Zv4bSPLLEdDSPYrbEddVtCpfL2OBtrA4Hm
UQNaB2ATG9SVNqXkKcArjj4eUoVUdTz96ax76z4+mFEMyARIqXFRHvq7BIDN42M0
GzwgtTJZhjPu4qu6biIchMvzdr+yyN+JZcA7Y+2Du9/lXbaY3PZOTnapnwjga4VW
ZtoXVK/LmYDzeIqvOZXF5+2xEsUZ6w7TL819DPRmPZoijU9MLm54d+f27jjIalRA
489Qn3hCbMOdXSc44ZR32/B1DhVToZuyRnxFFH7DW69layd3qiGPwqpe2fFEm8Yj
pu91QQrxR3ddmkdK1b+J7nWd81yvr1lqxre0AzKELwfVO5ag4b17hB1o1koOHEEU
Mg94Qt3Re4L0ySUE16+FID9tx7gqAasQ+SrkmG/rdBDc2D/DT8cet0OiI0pJ6b/x
uA81QI4vGUvHMJciXr4RVR2EI4Jac4L5ZZkUXnmDdLFe+DZoVF3Ts079vy91Wk3N
KuxO/Y5uNtD1CHP9fJSx55F5yXMY3qbeMDlFmsfk4tLrx9qjGoO0XupQfwetAMzM
XjnWAvrh+kSLym9oS+MbIKUgSRpkkOMHpy8xAwXUWNc14v0DjAbqTAZ0h+hk8nxE
8FqZoV8AUa3h+/kcJ43n/jUTGtGsWg==
-----END CERTIFICATE-----
-----BEGIN CERTIFICATE-----
MIIFlzCCA3+gAwIBAgIJAI0KWhFC4amwMA0GCSqGSIb3DQEBCwUAMFQxCzAJBgNV
BAYTAkJFMREwDwYDVQQIDAhCZWxnaXF1ZTEOMAwGA1UEBwwFTmFtdXIxEDAOBgNV
BAoMB0NBIFJvb3QxEDAOBgNVBAMMB0NBIFJvb3QwHhcNMjUwNjEyMTQ1OTU2WhcN
MzAwNjExMTQ1OTU2WjBdMQswCQYDVQQGEwJCRTERMA8GA1UECAwIQmVsZ2lxdWUx
DjAMBgNVBAcMBU5hbXVyMREwDwYDVQQKDAhDQSBJbnRlcjEYMBYGA1UEAwwPSW50
ZXJtZWRpYXRlIENBMIICIjANBgkqhkiG9w0BAQEFAAOCAg8AMIICCgKCAgEAw6rB
tmubQcyhaddbbq7Cu1h+I3AO2lFMLuIFR4gQgE7hoISmYA2qhzxpQ0L47euCTH+Z
XAmmgkoA+6DcsjqR6F+P+xWVIH1if9phZ8a1dYjvqfW8gQm7Y6tRc6s9pre7pXAe
bnF6BtmU9dihpSgO02FeIL31KRADz+arXzAPi6gor5ANWipmov8yeYmyf4EiTmWs
x+WrhUq7qxvJWHfhNbhHHgapfJulwAUzBqUUi4IaXbYZ/jfEu79ZHNfTom8aK5DX
iVciOjrfWrUxdvv9ufpOidlY8vi4AKPHhPDUMhQ1JoSgRJHjxr8Tbxf3OrHR0mcE
iWnTLuyhFQW9lBNSLSF3xbnbCLKqOR7tMYFQ8S0Z4C5kbpkmIBbAhvZ2fwX5FTS9
jJ3wl53I1dq7MhRfL4+u1HiwZiH+DzMtscfuYGrCPZLi0/SkkEehL896162XFrsD
zpRbY4713wnlFcY5DIVT2SsOe+rQgeEKfKzIWwIFvpcMiiV3XKmylgj/+JMWIOjZ
wrtRyT9OHxybTdDNk/spWRRLdjnJNtz+jstdyuMnf1nAwV+p/h61Q706bJ70Llmi
CgbKAEwCJaXZZa6G5tTxvSGwFph9dSktIDdatty02M8bdhf77LpcDdxOVcvLTVWV
YP0MoZbCAC1ZyIeG5Y6Q9pDySsj/9V/puwsyy/UCAwEAAaNjMGEwDwYDVR0TAQH/
BAUwAwEB/zAOBgNVHQ8BAf8EBAMCAQYwHQYDVR0OBBYEFG8XHQ7Tn/ICNsyIvtox
DLHkq4q4MB8GA1UdIwQYMBaAFDRXeEezFz8eDX3hkID9EB1JRHUbMA0GCSqGSIb3
DQEBCwUAA4ICAQA914cQJiggrH4smgC6352yRVr8Xg13W919qxKrTXN7GAcN+q9K
w5yqBBqbD+ige2IO0EEiRtBqF/f5Dx2tS2JVIL9VI6ETzTQQOxOnkSfctLaawgHm
21D9tAj+gsrJaQjxq3cgYvssYjoZR64GCt+Y0i0VsrHCSgTjyiUu/cYyCE7XbZiB
8I2DZ+GsL1DUE3qv32CIO1yo6ti0Eg8ErEm2ly8l41Xh2sa2DwvVmY7xFygFfjW1
iRmjaFZJqT0N5FKB6uzZToD1QU7i3cUm4tYj7hIv5nmmGj26Ll4nX9HXx/wkXK96
XVScoo/Vn1RXmSHL61M/9mY4m6QnjBHdDCix7xZjMUplHbqhY6lMHzTK8SIENGr/
oA1PuiGUZfZRxm22iBIunRGFgCmWeY92cWk7OYGR9l0zJBs6Y5NvwBelkozfdiTQ
5OnO5aR3qEG8xkpecGIuMIEy+DekgbsIU9bZcmQY+cF9J+ThOMGSe556lhWiHEM3
PYB3n39zk0jWDKIKtfzLlb2ivXsxgWWvTQWmDh1XYWdj9+yG4+i6+1Ttby7SMCm4
RDS8Ua8CB5Z9JXyep3UKfVtPrQ/HR1YnxxnwMAPGmnqY6oMxybCEXJ+NSJ2K1NE3
vHxxuFYGzOJoroxkSEOkK+FHsjCNTWpj74exlA2NuV8fxER0UIyIEf7KsQ==
-----END CERTIFICATE-----
