Certificate:
    Data:
        Version: 3 (0x2)
        Serial Number: 4096 (0x1000)
    Signature Algorithm: sha256WithRSAEncryption
        Issuer: C=BE, ST=Belgique, L=Namur, O=CA Inter, CN=Intermediate CA
        Validity
            Not Before: Jun 12 14:59:56 2025 GMT
            Not After : Jun 12 14:59:56 2026 GMT
        Subject: CN=frontend.localhost
        Subject Public Key Info:
            Public Key Algorithm: rsaEncryption
                RSA Public-Key: (4096 bit)
                Modulus:
                    00:c4:3e:6a:42:d9:47:51:1c:e3:6c:d8:f2:01:8e:
                    b9:97:3b:6c:65:bb:54:ed:ba:d6:c6:9c:c9:cd:1a:
                    44:b3:d8:08:0f:72:ae:ed:37:56:b1:db:6b:e8:64:
                    b6:75:80:05:b1:59:6e:1d:32:59:d8:f3:c4:36:7d:
                    79:ff:de:67:1c:d2:b5:78:0e:80:80:3d:48:86:9e:
                    1a:c4:d3:2f:b9:26:95:a2:1a:7a:c1:b7:5b:e4:f3:
                    81:cc:0c:94:94:6e:2b:d5:22:1b:1e:38:4c:c0:a5:
                    a3:6f:3a:93:c6:81:e0:c7:2f:ac:49:ba:f6:94:86:
                    15:bd:bd:29:25:1f:88:f7:f0:96:ef:f9:ed:dc:f7:
                    cd:2f:69:41:6c:b9:7e:48:fc:3c:2a:77:a6:7b:ae:
                    f8:fb:12:a7:41:33:c3:70:63:f6:fa:9d:42:02:cc:
                    35:0e:bd:68:44:2e:5f:c0:d5:90:65:b8:32:39:b6:
                    7c:e7:d6:0b:6b:62:3f:c8:bb:cd:da:02:b3:3b:b9:
                    e4:9e:24:76:1d:66:c8:eb:e5:d7:13:3e:fb:7f:be:
                    49:c5:c0:ea:b5:e4:e6:df:60:ad:87:0c:e4:01:ad:
                    b4:fe:f8:5d:ac:ba:02:d6:16:33:e8:3c:92:16:76:
                    b9:00:a1:78:ec:5b:da:d9:87:61:1c:3a:67:b5:d4:
                    5c:4b:0d:2b:2f:94:ed:66:36:93:99:88:63:92:ef:
                    6f:d8:40:de:ae:c3:85:4c:20:d0:58:ca:f6:82:7a:
                    cd:e5:f5:52:79:16:23:34:d7:50:da:52:ee:91:a6:
                    e9:9b:fc:5e:4a:3a:6e:2e:d9:92:50:44:d8:37:6b:
                    36:6e:9b:cf:05:ee:8f:25:b4:8f:ef:dd:bc:92:e9:
                    13:6f:12:74:62:7c:c5:af:c0:20:80:3a:cc:71:f5:
                    5d:cf:d8:08:37:08:db:77:0a:28:7b:b6:50:a4:a1:
                    af:85:ae:04:34:3c:0f:ec:66:c1:1d:07:d8:29:aa:
                    db:96:8b:e6:c0:81:09:67:8a:d3:d8:f8:47:4d:1c:
                    8e:03:68:28:f9:77:7c:41:d8:07:e0:c9:7e:d1:00:
                    b7:15:3f:e8:37:ff:dd:40:a9:b8:c3:e2:a8:75:5e:
                    e1:b4:cd:ad:69:54:4a:f1:9c:70:52:75:5e:31:23:
                    9a:fb:0e:f3:f0:6f:6d:c8:a2:c6:22:de:1e:81:da:
                    ff:6d:f1:68:95:23:8a:a5:75:7d:fe:ae:06:f1:79:
                    f8:4d:8a:fa:83:9b:99:a6:c4:3d:a1:2d:10:fd:27:
                    49:11:20:0c:2e:d2:cc:1e:df:97:2e:be:0c:f9:cf:
                    b8:ad:83:6d:b4:c7:6f:04:f7:46:6f:9d:8d:70:82:
                    e0:87:0b
                Exponent: 65537 (0x10001)
        X509v3 extensions:
            X509v3 Basic Constraints: 
                CA:FALSE
            X509v3 Key Usage: critical
                Digital Signature, Key Encipherment
            X509v3 Extended Key Usage: 
                TLS Web Server Authentication
            X509v3 Subject Key Identifier: 
                DB:2F:94:11:D8:40:75:9F:A8:ED:E7:A2:B2:CB:66:93:58:C9:B6:B3
            X509v3 Authority Key Identifier: 
                keyid:6F:17:1D:0E:D3:9F:F2:02:36:CC:88:BE:DA:31:0C:B1:E4:AB:8A:B8

            X509v3 Subject Alternative Name: 
                DNS:localhost, DNS:host.docker.internal
    Signature Algorithm: sha256WithRSAEncryption
         3e:79:e2:13:89:7a:8c:0b:e1:49:9c:a0:a2:3d:18:52:0e:cc:
         a6:4b:ea:5a:1e:63:36:f6:e8:43:f3:5a:93:d3:a8:f3:8b:da:
         37:b7:bb:64:7b:b3:e2:fa:bf:3e:68:cb:cc:e2:13:f1:73:04:
         7e:17:15:d4:fe:5c:e8:bd:61:db:11:d1:31:15:d2:63:4e:9f:
         28:a0:a3:0f:0c:02:20:2b:15:ad:ed:96:a7:fc:73:9c:36:40:
         c2:90:84:69:76:40:6e:0a:42:77:5a:7f:1e:09:c0:6d:c4:6c:
         44:44:d1:85:0f:02:39:5e:d2:02:b3:80:c0:ac:86:a2:47:a2:
         c2:83:c9:48:75:30:57:f6:03:2f:ec:f4:fa:18:82:a3:ff:ce:
         07:75:2a:f5:fa:5e:89:cf:bb:18:d8:ff:86:7c:65:c7:94:a9:
         f7:a7:86:76:79:40:40:1c:fd:e3:04:7a:4d:48:5b:8b:19:0e:
         54:06:8d:25:82:5c:a5:b4:cf:4a:8e:49:10:f4:79:ee:d1:7d:
         d3:77:ec:20:7c:8a:da:22:f0:09:c5:d5:c5:22:03:2a:96:a5:
         5f:6c:5e:d3:20:cc:ec:62:8e:bc:c9:25:34:c7:5d:02:28:b3:
         12:0d:b0:84:d7:75:67:4f:8f:a4:ba:d3:23:4b:9b:bd:53:0d:
         af:65:b6:4c:88:70:d3:ba:7f:ea:08:b6:17:e2:10:2e:d0:e8:
         e7:a5:ef:4c:a3:8b:c2:eb:9d:af:5f:5f:1b:d8:9b:36:36:0e:
         4e:cd:07:80:41:1f:84:0c:a6:2e:70:a4:a7:55:13:8f:0b:2d:
         85:d3:62:94:4f:69:39:7c:c0:91:4e:2a:1f:b8:bb:28:05:14:
         0c:9c:ab:6f:83:0c:40:47:5b:b1:4d:ea:8e:3e:2b:4f:aa:7b:
         03:f4:73:e6:ae:c8:1a:35:dc:70:f6:70:fa:15:cf:fc:9f:23:
         68:56:aa:30:47:5e:09:20:3a:31:b1:95:63:a0:92:27:bd:e2:
         d5:d6:ce:b4:e9:3f:57:85:c8:a7:0a:8b:b3:a2:7f:8d:2b:8c:
         1e:23:93:2e:3c:02:bc:94:7b:df:b8:51:8c:11:41:df:e4:2d:
         c2:78:56:96:6d:cc:aa:8f:45:3c:b7:cd:37:30:62:f3:e8:ad:
         20:83:c2:0d:d8:ff:73:12:23:91:74:5e:89:9d:32:f7:18:73:
         d4:0c:fc:be:5a:12:79:79:46:a9:a9:23:46:4e:49:0d:1b:44:
         60:4c:23:02:31:4f:f9:8e:af:17:22:21:5b:91:ff:e2:5d:92:
         3c:0c:63:c3:4d:a1:0d:12:82:34:02:11:65:ce:0b:15:2e:2b:
         bd:a0:2f:2d:10:f5:c2:30
-----BEGIN CERTIFICATE-----
MIIFljCCA36gAwIBAgICEAAwDQYJKoZIhvcNAQELBQAwXTELMAkGA1UEBhMCQkUx
ETAPBgNVBAgMCEJlbGdpcXVlMQ4wDAYDVQQHDAVOYW11cjERMA8GA1UECgwIQ0Eg
SW50ZXIxGDAWBgNVBAMMD0ludGVybWVkaWF0ZSBDQTAeFw0yNTA2MTIxNDU5NTZa
Fw0yNjA2MTIxNDU5NTZaMB0xGzAZBgNVBAMMEmZyb250ZW5kLmxvY2FsaG9zdDCC
AiIwDQYJKoZIhvcNAQEBBQADggIPADCCAgoCggIBAMQ+akLZR1Ec42zY8gGOuZc7
bGW7VO261sacyc0aRLPYCA9yru03VrHba+hktnWABbFZbh0yWdjzxDZ9ef/eZxzS
tXgOgIA9SIaeGsTTL7kmlaIaesG3W+TzgcwMlJRuK9UiGx44TMClo286k8aB4Mcv
rEm69pSGFb29KSUfiPfwlu/57dz3zS9pQWy5fkj8PCp3pnuu+PsSp0Ezw3Bj9vqd
QgLMNQ69aEQuX8DVkGW4Mjm2fOfWC2tiP8i7zdoCszu55J4kdh1myOvl1xM++3++
ScXA6rXk5t9grYcM5AGttP74Xay6AtYWM+g8khZ2uQCheOxb2tmHYRw6Z7XUXEsN
Ky+U7WY2k5mIY5Lvb9hA3q7DhUwg0FjK9oJ6zeX1UnkWIzTXUNpS7pGm6Zv8Xko6
bi7ZklBE2DdrNm6bzwXujyW0j+/dvJLpE28SdGJ8xa/AIIA6zHH1Xc/YCDcI23cK
KHu2UKShr4WuBDQ8D+xmwR0H2Cmq25aL5sCBCWeK09j4R00cjgNoKPl3fEHYB+DJ
ftEAtxU/6Df/3UCpuMPiqHVe4bTNrWlUSvGccFJ1XjEjmvsO8/BvbciixiLeHoHa
/23xaJUjiqV1ff6uBvF5+E2K+oObmabEPaEtEP0nSREgDC7SzB7fly6+DPnPuK2D
bbTHbwT3Rm+djXCC4IcLAgMBAAGjgZ8wgZwwCQYDVR0TBAIwADAOBgNVHQ8BAf8E
BAMCBaAwEwYDVR0lBAwwCgYIKwYBBQUHAwEwHQYDVR0OBBYEFNsvlBHYQHWfqO3n
orLLZpNYybazMB8GA1UdIwQYMBaAFG8XHQ7Tn/ICNsyIvtoxDLHkq4q4MCoGA1Ud
EQQjMCGCCWxvY2FsaG9zdIIUaG9zdC5kb2NrZXIuaW50ZXJuYWwwDQYJKoZIhvcN
AQELBQADggIBAD554hOJeowL4UmcoKI9GFIOzKZL6loeYzb26EPzWpPTqPOL2je3
u2R7s+L6vz5oy8ziE/FzBH4XFdT+XOi9YdsR0TEV0mNOnyigow8MAiArFa3tlqf8
c5w2QMKQhGl2QG4KQndafx4JwG3EbERE0YUPAjle0gKzgMCshqJHosKDyUh1MFf2
Ay/s9PoYgqP/zgd1KvX6XonPuxjY/4Z8ZceUqfenhnZ5QEAc/eMEek1IW4sZDlQG
jSWCXKW0z0qOSRD0ee7RfdN37CB8itoi8AnF1cUiAyqWpV9sXtMgzOxijrzJJTTH
XQIosxINsITXdWdPj6S60yNLm71TDa9ltkyIcNO6f+oIthfiEC7Q6Oel70yji8Lr
na9fXxvYmzY2Dk7NB4BBH4QMpi5wpKdVE48LLYXTYpRPaTl8wJFOKh+4uygFFAyc
q2+DDEBHW7FN6o4+K0+qewP0c+auyBo13HD2cPoVz/yfI2hWqjBHXgkgOjGxlWOg
kie94tXWzrTpP1eFyKcKi7Oif40rjB4jky48AryUe9+4UYwRQd/kLcJ4VpZtzKqP
RTy3zTcwYvPorSCDwg3Y/3MSI5F0XomdMvcYc9QM/L5aEnl5RqmpI0ZOSQ0bRGBM
IwIxT/mOrxciIVuR/+JdkjwMY8NNoQ0SgjQCEWXOCxUuK72gLy0Q9cIw
-----END CERTIFICATE-----
