Certificate:
    Data:
        Version: 3 (0x2)
        Serial Number: 4099 (0x1003)
    Signature Algorithm: sha256WithRSAEncryption
        Issuer: C=BE, ST=Belgique, L=Namur, O=CA Inter, CN=Intermediate CA
        Validity
            Not Before: Jun 12 15:00:00 2025 GMT
            Not After : Jun 12 15:00:00 2026 GMT
        Subject: CN=frontendsite.localhost
        Subject Public Key Info:
            Public Key Algorithm: rsaEncryption
                RSA Public-Key: (2048 bit)
                Modulus:
                    00:c0:75:07:e1:77:3e:aa:ff:e9:c9:66:65:b6:e9:
                    f6:8a:f5:5e:37:3c:7d:5c:f6:c1:af:7a:a2:d2:6e:
                    b6:09:d3:c4:95:d5:2a:a5:d8:ae:73:0a:64:e4:d2:
                    0f:93:7a:0e:92:3b:05:13:c4:f3:28:14:ea:57:ef:
                    21:52:c4:74:61:2b:e7:57:3f:ec:4e:1f:8f:de:16:
                    f3:64:0d:5f:50:ab:18:1d:90:7b:06:d5:a8:49:8e:
                    be:86:1f:4d:70:d4:6b:91:b1:eb:d1:29:2c:ac:76:
                    28:cd:a0:5f:f6:4b:81:0b:9d:75:5f:6f:13:c7:fc:
                    ab:92:57:e0:d4:e1:68:ac:22:05:9d:19:e2:1e:88:
                    05:d9:8c:91:a6:ab:4f:b1:a4:f4:a3:64:1e:96:c0:
                    02:75:af:e2:f4:c2:af:92:60:b2:75:5c:f7:00:1f:
                    92:0b:aa:ea:e0:6a:a9:fa:c6:ce:f2:db:b3:90:e3:
                    47:f1:dc:02:f0:e6:24:45:85:da:42:51:56:c4:11:
                    58:8e:7f:7b:50:5d:97:a1:ec:7f:e0:e8:0d:fd:58:
                    0c:48:f7:c9:c6:83:08:ec:34:ea:f1:85:4b:15:7b:
                    cc:20:97:30:0e:01:2e:2b:f2:32:68:31:69:ca:8d:
                    7b:00:d6:c6:31:a2:ae:ce:e0:8b:25:7e:b0:bc:4a:
                    41:9b
                Exponent: 65537 (0x10001)
        X509v3 extensions:
            X509v3 Basic Constraints: 
                CA:FALSE
            X509v3 Key Usage: critical
                Digital Signature, Key Encipherment
            X509v3 Extended Key Usage: 
                TLS Web Server Authentication
            X509v3 Subject Key Identifier: 
                26:1D:43:61:C2:B3:91:25:E3:8A:64:4A:F2:08:C6:75:6E:31:C4:D1
            X509v3 Authority Key Identifier: 
                keyid:6F:17:1D:0E:D3:9F:F2:02:36:CC:88:BE:DA:31:0C:B1:E4:AB:8A:B8

            X509v3 Subject Alternative Name: 
                DNS:localhost, DNS:host.docker.internal
    Signature Algorithm: sha256WithRSAEncryption
         83:c3:ae:ce:78:24:28:f1:64:88:3e:1e:70:3a:83:6c:5b:12:
         10:ea:dd:77:03:3c:8e:64:f2:d1:87:1d:4d:4d:79:8f:56:04:
         ba:56:9c:0e:f7:9f:46:9c:c3:91:08:58:12:0c:32:1b:0a:3c:
         28:a7:14:8d:9b:9d:32:60:3e:de:d5:c4:09:38:d4:54:8d:d5:
         b3:c0:91:f0:e0:04:3a:2f:82:7a:e2:4b:a2:4d:c3:24:c2:35:
         3f:3a:04:57:4c:f5:21:a8:8e:ab:a2:0a:57:65:c2:e8:21:37:
         7d:40:07:80:e9:14:54:ce:72:58:74:01:7e:ee:e5:24:4d:48:
         2f:2f:57:5b:63:c4:d4:e1:11:f7:41:25:34:77:fe:8d:da:32:
         bb:8d:3b:5a:cb:8c:d9:ff:65:13:2a:4f:97:78:4a:3d:8d:e2:
         2a:be:44:77:4b:93:eb:84:9c:81:2b:e6:74:ff:04:20:10:b2:
         de:b2:a9:b5:e0:df:96:29:a2:80:51:db:c5:98:97:6b:b3:66:
         26:78:d9:7b:81:97:aa:95:ef:d8:37:13:2b:01:ce:60:37:52:
         53:ee:84:2b:58:bc:19:2b:b7:50:1e:ad:7e:d1:d6:53:9b:ad:
         0e:ed:a3:50:6b:7c:08:49:24:45:2f:a4:00:f6:24:5d:b5:b5:
         3d:69:f4:0e:16:c9:d9:50:5e:f2:74:b4:54:c5:6e:44:4b:4a:
         39:e5:d9:3a:86:78:0c:55:4f:32:e7:e3:de:4f:e1:ff:7e:57:
         5e:04:7e:60:79:29:74:19:13:2d:d4:ed:3d:38:0f:0f:8e:0b:
         85:9c:4c:80:af:bc:0c:56:9c:8f:31:54:f5:38:0e:b4:3b:a8:
         2a:1c:ab:79:6a:1d:a6:b8:54:25:98:47:09:ea:be:85:39:b1:
         88:6f:6c:12:92:f2:65:3d:46:7b:b7:ec:65:ad:c7:0c:eb:07:
         c9:41:c9:af:cb:15:5b:84:12:0b:0c:76:d0:f4:27:81:47:6a:
         77:6b:2c:0e:7a:b6:cf:08:b7:46:a7:c4:30:e7:64:bf:5b:9c:
         84:34:78:3e:58:5d:7e:63:b2:3f:7c:13:7f:78:b1:26:dd:ca:
         fc:9e:40:78:d4:48:f9:25:8c:c8:4a:73:4c:c6:33:95:d2:f3:
         4c:1c:cc:d6:c9:15:f5:5d:8a:14:5e:90:9e:b8:89:b4:7c:30:
         06:9d:16:c6:46:3b:70:16:a9:c2:c5:23:8c:d8:87:67:1f:1d:
         98:78:fb:28:34:48:0a:39:aa:58:1f:a6:c0:d9:fe:d5:26:d1:
         16:75:d4:1a:d5:13:c2:2b:95:52:2f:49:e1:08:bd:2c:f2:74:
         76:39:9c:5d:7d:77:d2:4c
-----BEGIN CERTIFICATE-----
MIIEmjCCAoKgAwIBAgICEAMwDQYJKoZIhvcNAQELBQAwXTELMAkGA1UEBhMCQkUx
ETAPBgNVBAgMCEJlbGdpcXVlMQ4wDAYDVQQHDAVOYW11cjERMA8GA1UECgwIQ0Eg
SW50ZXIxGDAWBgNVBAMMD0ludGVybWVkaWF0ZSBDQTAeFw0yNTA2MTIxNTAwMDBa
Fw0yNjA2MTIxNTAwMDBaMCExHzAdBgNVBAMMFmZyb250ZW5kc2l0ZS5sb2NhbGhv
c3QwggEiMA0GCSqGSIb3DQEBAQUAA4IBDwAwggEKAoIBAQDAdQfhdz6q/+nJZmW2
6faK9V43PH1c9sGveqLSbrYJ08SV1Sql2K5zCmTk0g+Teg6SOwUTxPMoFOpX7yFS
xHRhK+dXP+xOH4/eFvNkDV9QqxgdkHsG1ahJjr6GH01w1GuRsevRKSysdijNoF/2
S4ELnXVfbxPH/KuSV+DU4WisIgWdGeIeiAXZjJGmq0+xpPSjZB6WwAJ1r+L0wq+S
YLJ1XPcAH5ILqurgaqn6xs7y27OQ40fx3ALw5iRFhdpCUVbEEViOf3tQXZeh7H/g
6A39WAxI98nGgwjsNOrxhUsVe8wglzAOAS4r8jJoMWnKjXsA1sYxoq7O4IslfrC8
SkGbAgMBAAGjgZ8wgZwwCQYDVR0TBAIwADAOBgNVHQ8BAf8EBAMCBaAwEwYDVR0l
BAwwCgYIKwYBBQUHAwEwHQYDVR0OBBYEFCYdQ2HCs5El44pkSvIIxnVuMcTRMB8G
A1UdIwQYMBaAFG8XHQ7Tn/ICNsyIvtoxDLHkq4q4MCoGA1UdEQQjMCGCCWxvY2Fs
aG9zdIIUaG9zdC5kb2NrZXIuaW50ZXJuYWwwDQYJKoZIhvcNAQELBQADggIBAIPD
rs54JCjxZIg+HnA6g2xbEhDq3XcDPI5k8tGHHU1NeY9WBLpWnA73n0acw5EIWBIM
MhsKPCinFI2bnTJgPt7VxAk41FSN1bPAkfDgBDovgnriS6JNwyTCNT86BFdM9SGo
jquiCldlwughN31AB4DpFFTOclh0AX7u5SRNSC8vV1tjxNThEfdBJTR3/o3aMruN
O1rLjNn/ZRMqT5d4Sj2N4iq+RHdLk+uEnIEr5nT/BCAQst6yqbXg35YpooBR28WY
l2uzZiZ42XuBl6qV79g3EysBzmA3UlPuhCtYvBkrt1AerX7R1lObrQ7to1BrfAhJ
JEUvpAD2JF21tT1p9A4WydlQXvJ0tFTFbkRLSjnl2TqGeAxVTzLn495P4f9+V14E
fmB5KXQZEy3U7T04Dw+OC4WcTICvvAxWnI8xVPU4DrQ7qCocq3lqHaa4VCWYRwnq
voU5sYhvbBKS8mU9Rnu37GWtxwzrB8lBya/LFVuEEgsMdtD0J4FHandrLA56ts8I
t0anxDDnZL9bnIQ0eD5YXX5jsj98E394sSbdyvyeQHjUSPkljMhKc0zGM5XS80wc
zNbJFfVdihRekJ64ibR8MAadFsZGO3AWqcLFI4zYh2cfHZh4+yg0SAo5qlgfpsDZ
/tUm0RZ11BrVE8IrlVIvSeEIvSzydHY5nF19d9JM
-----END CERTIFICATE-----
