Certificate:
    Data:
        Version: 3 (0x2)
        Serial Number: 4100 (0x1004)
        Signature Algorithm: sha256WithRSAEncryption
        Issuer: C=BE, ST=Belgique, L=Namur, O=CA Inter, CN=Intermediate CA
        Validity
            Not Before: Jun 13 13:23:12 2025 GMT
            Not After : Jun 13 13:23:12 2026 GMT
        Subject: CN=backendsite.localhost
        Subject Public Key Info:
            Public Key Algorithm: rsaEncryption
                Public-Key: (2048 bit)
                Modulus:
                    00:a4:b7:d3:df:cd:cc:e0:1c:37:e1:8e:81:ac:3c:
                    fd:dc:3e:bd:67:40:55:cc:3f:ac:ae:f2:c9:b5:da:
                    51:64:9c:17:34:1b:bf:88:a1:38:1a:cc:9f:7b:fb:
                    82:f3:58:c1:4c:ef:8d:e0:08:5d:fe:7d:8e:ea:8f:
                    bf:69:2b:08:a0:7b:19:24:b1:20:16:d6:4f:18:40:
                    5e:b4:e6:ab:48:18:4d:d5:8d:e5:61:71:24:f7:76:
                    cd:4a:6a:52:31:d3:b4:af:f4:aa:73:22:ed:3a:6e:
                    12:7a:c6:e8:9c:cc:d9:7a:98:9d:c4:81:c7:a1:90:
                    fe:5e:14:f4:e5:96:1d:d6:a3:1c:e7:0b:d4:05:9b:
                    97:50:94:8c:b2:af:e9:76:54:95:cc:a6:d8:cb:19:
                    21:cf:01:9e:0c:88:99:62:44:2b:6e:0a:b5:bc:7d:
                    9e:e3:41:55:79:86:42:c2:76:35:4c:7c:55:c1:72:
                    80:53:af:89:e4:7b:23:07:8b:66:86:e0:9e:25:ea:
                    08:2c:f9:2d:ac:c2:2a:38:e2:de:08:4c:22:23:18:
                    20:8c:2f:8e:c3:ad:09:f0:af:8e:47:18:2d:ad:b3:
                    54:39:fc:61:ed:26:41:7a:1d:9a:e9:f9:3a:f5:0e:
                    25:39:a9:06:98:ec:00:41:ce:c4:60:41:ca:a4:08:
                    e4:cf
                Exponent: 65537 (0x10001)
        X509v3 extensions:
            X509v3 Basic Constraints: 
                CA:FALSE
            X509v3 Key Usage: critical
                Digital Signature, Key Encipherment
            X509v3 Extended Key Usage: 
                TLS Web Server Authentication
            X509v3 Subject Key Identifier: 
                6F:E3:57:AB:43:E3:B6:C9:1E:AC:A2:BB:89:5E:20:12:19:3A:F0:1B
            X509v3 Authority Key Identifier: 
                6F:17:1D:0E:D3:9F:F2:02:36:CC:88:BE:DA:31:0C:B1:E4:AB:8A:B8
            X509v3 Subject Alternative Name: 
                DNS:localhost, DNS:host.docker.internal
    Signature Algorithm: sha256WithRSAEncryption
    Signature Value:
        a5:64:d7:c8:97:6f:75:da:43:d7:18:b6:29:ad:7b:21:ec:61:
        34:ed:f3:4e:7d:fc:71:f1:00:8d:4d:70:0b:e1:7e:1f:b1:17:
        d0:13:93:bd:c6:41:1a:41:e8:97:21:86:64:fa:cf:eb:a3:a6:
        e6:c7:45:b3:37:94:4e:ee:2e:1f:4f:c2:2e:b3:4f:a5:13:4f:
        57:35:d5:3c:2b:19:68:9a:f3:cc:b5:6d:1e:b0:b2:d2:5c:66:
        2a:2c:48:0f:a7:b9:4e:4f:76:84:06:83:f2:50:3e:61:89:a8:
        33:2d:4a:90:0d:cd:c8:fa:62:e4:28:91:6e:ee:1a:f8:39:b5:
        cb:70:7a:1e:b2:30:dc:df:94:8e:8d:19:d9:96:fa:3d:65:a7:
        35:44:9a:55:20:92:fd:cf:ec:61:20:26:5d:e4:27:45:6f:b6:
        a6:a9:bb:24:33:04:3e:27:68:12:82:7c:26:e2:ec:dd:93:97:
        2f:6c:d3:04:d4:a0:d0:2b:b8:b8:89:f7:6f:ce:88:33:a7:90:
        69:93:93:3e:f1:54:6d:c1:70:bf:d5:b0:0b:cd:f6:c0:9f:95:
        81:df:24:f6:eb:13:28:3a:46:04:00:ac:bc:e8:5e:ea:8c:08:
        73:41:4a:b6:98:54:71:fe:cb:d4:0c:05:0f:54:12:26:66:e0:
        26:c3:f9:d5:a7:98:b3:9e:13:7c:07:35:9a:c6:b3:55:19:41:
        9f:45:80:71:59:d8:9d:64:f5:05:99:43:88:bb:f1:e3:cd:ae:
        94:41:19:c9:be:92:be:6e:54:6e:2b:63:b8:9a:e9:01:2b:74:
        e3:7a:91:6a:3b:5e:75:aa:13:a4:ed:33:8a:e8:37:16:34:e3:
        a3:bf:0d:ed:ee:76:a5:21:70:8f:24:6b:84:ab:f2:87:ce:c7:
        37:2c:f3:3f:3f:7e:b6:1d:6e:84:af:a2:31:8a:ff:b1:ba:fc:
        7d:cb:4e:4d:b4:ad:31:ac:c4:29:4c:32:95:c8:62:a4:58:5f:
        b9:fb:da:18:29:8b:e2:10:29:f6:29:fd:13:03:53:b1:54:0d:
        43:53:01:43:01:bc:f2:ca:1c:0a:ad:d8:63:67:e2:c3:0b:e1:
        b4:35:f4:46:0f:d0:fb:48:18:90:a6:17:21:88:fe:ec:53:21:
        19:b3:9d:9b:ee:e8:bc:61:99:ad:3e:0d:e0:77:42:d5:c9:98:
        c0:ed:52:c0:8b:bb:6b:67:c9:09:d3:4a:74:7b:70:9c:33:8d:
        fb:8b:78:30:de:79:af:6e:e9:d3:62:d7:f6:3b:30:d3:ae:93:
        4e:4e:3f:cc:56:9a:ef:2b:bf:69:d8:a9:2c:5d:f6:8d:11:93:
        a8:70:4a:99:50:59:77:ec
-----BEGIN CERTIFICATE-----
MIIEmTCCAoGgAwIBAgICEAQwDQYJKoZIhvcNAQELBQAwXTELMAkGA1UEBhMCQkUx
ETAPBgNVBAgMCEJlbGdpcXVlMQ4wDAYDVQQHDAVOYW11cjERMA8GA1UECgwIQ0Eg
SW50ZXIxGDAWBgNVBAMMD0ludGVybWVkaWF0ZSBDQTAeFw0yNTA2MTMxMzIzMTJa
Fw0yNjA2MTMxMzIzMTJaMCAxHjAcBgNVBAMMFWJhY2tlbmRzaXRlLmxvY2FsaG9z
dDCCASIwDQYJKoZIhvcNAQEBBQADggEPADCCAQoCggEBAKS309/NzOAcN+GOgaw8
/dw+vWdAVcw/rK7yybXaUWScFzQbv4ihOBrMn3v7gvNYwUzvjeAIXf59juqPv2kr
CKB7GSSxIBbWTxhAXrTmq0gYTdWN5WFxJPd2zUpqUjHTtK/0qnMi7TpuEnrG6JzM
2XqYncSBx6GQ/l4U9OWWHdajHOcL1AWbl1CUjLKv6XZUlcym2MsZIc8BngyImWJE
K24Ktbx9nuNBVXmGQsJ2NUx8VcFygFOvieR7IweLZobgniXqCCz5LazCKjji3ghM
IiMYIIwvjsOtCfCvjkcYLa2zVDn8Ye0mQXodmun5OvUOJTmpBpjsAEHOxGBByqQI
5M8CAwEAAaOBnzCBnDAJBgNVHRMEAjAAMA4GA1UdDwEB/wQEAwIFoDATBgNVHSUE
DDAKBggrBgEFBQcDATAdBgNVHQ4EFgQUb+NXq0PjtskerKK7iV4gEhk68BswHwYD
VR0jBBgwFoAUbxcdDtOf8gI2zIi+2jEMseSrirgwKgYDVR0RBCMwIYIJbG9jYWxo
b3N0ghRob3N0LmRvY2tlci5pbnRlcm5hbDANBgkqhkiG9w0BAQsFAAOCAgEApWTX
yJdvddpD1xi2Ka17IexhNO3zTn38cfEAjU1wC+F+H7EX0BOTvcZBGkHolyGGZPrP
66Om5sdFszeUTu4uH0/CLrNPpRNPVzXVPCsZaJrzzLVtHrCy0lxmKixID6e5Tk92
hAaD8lA+YYmoMy1KkA3NyPpi5CiRbu4a+Dm1y3B6HrIw3N+Ujo0Z2Zb6PWWnNUSa
VSCS/c/sYSAmXeQnRW+2pqm7JDMEPidoEoJ8JuLs3ZOXL2zTBNSg0Cu4uIn3b86I
M6eQaZOTPvFUbcFwv9WwC832wJ+Vgd8k9usTKDpGBACsvOhe6owIc0FKtphUcf7L
1AwFD1QSJmbgJsP51aeYs54TfAc1msazVRlBn0WAcVnYnWT1BZlDiLvx482ulEEZ
yb6Svm5UbitjuJrpASt043qRajtedaoTpO0ziug3FjTjo78N7e52pSFwjyRrhKvy
h87HNyzzPz9+th1uhK+iMYr/sbr8fctOTbStMazEKUwylchipFhfufvaGCmL4hAp
9in9EwNTsVQNQ1MBQwG88socCq3YY2fiwwvhtDX0Rg/Q+0gYkKYXIYj+7FMhGbOd
m+7ovGGZrT4N4HdC1cmYwO1SwIu7a2fJCdNKdHtwnDON+4t4MN55r27p02LX9jsw
066TTk4/zFaa7yu/adipLF32jRGTqHBKmVBZd+w=
-----END CERTIFICATE-----
