Certificate:
    Data:
        Version: 3 (0x2)
        Serial Number: 4104 (0x1008)
        Signature Algorithm: sha256WithRSAEncryption
        Issuer: C=BE, ST=Belgique, L=Namur, O=CA Inter, CN=Intermediate CA
        Validity
            Not Before: Jun 14 08:32:38 2025 GMT
            Not After : Jun 14 08:32:38 2026 GMT
        Subject: C=BE, ST=Belgique, O=API https backend site, CN=backendsite.localhost
        Subject Public Key Info:
            Public Key Algorithm: rsaEncryption
                Public-Key: (2048 bit)
                Modulus:
                    00:cd:16:43:30:c6:06:71:10:c7:3b:0a:85:be:73:
                    3e:0a:7e:5f:1c:44:e7:23:66:cb:95:36:7a:6a:b4:
                    3e:14:45:1a:b8:ca:e8:1b:66:ce:5c:c3:cb:a9:1c:
                    72:bd:7f:2c:24:e2:6b:ff:2d:e7:df:ad:e7:6b:36:
                    46:38:f5:26:1f:2c:d1:e1:2a:0e:e4:3e:22:56:5b:
                    2a:fa:8d:fe:e8:f7:15:f5:56:55:a8:63:f5:1e:20:
                    3b:6a:a2:70:d6:ec:b1:b9:b2:62:ce:ce:5d:bf:b3:
                    bc:d4:b8:88:70:3a:3d:b4:e0:41:e9:1e:4b:20:4a:
                    36:de:f8:97:08:c5:51:44:f5:89:5d:20:40:0c:53:
                    ba:1b:ef:50:b5:8e:9f:a6:a0:22:06:45:12:86:03:
                    e6:0d:1f:ef:fc:b6:cc:80:ff:5d:d5:90:f8:cb:74:
                    65:4f:c6:54:bd:13:2f:e5:a1:9d:62:02:19:83:b1:
                    02:5d:3d:cc:03:8f:29:9d:cf:ed:34:c6:a2:ae:ca:
                    95:5e:9a:53:1c:20:8a:98:a2:3c:c1:c8:36:e0:7b:
                    69:53:02:56:d5:19:3f:b5:b4:a0:36:0b:0f:a0:3f:
                    07:5a:ed:58:d0:61:84:c7:0b:65:48:bd:94:27:3a:
                    ad:e5:5c:05:10:f6:22:61:61:9d:68:a9:d4:cd:7c:
                    d9:39
                Exponent: 65537 (0x10001)
        X509v3 extensions:
            X509v3 Basic Constraints: 
                CA:FALSE
            X509v3 Key Usage: critical
                Digital Signature, Key Encipherment
            X509v3 Extended Key Usage: 
                TLS Web Server Authentication
            X509v3 Subject Key Identifier: 
                AB:EC:88:76:F2:B9:51:5D:9B:F0:28:70:97:9D:90:CC:E8:19:43:95
            X509v3 Authority Key Identifier: 
                6F:17:1D:0E:D3:9F:F2:02:36:CC:88:BE:DA:31:0C:B1:E4:AB:8A:B8
            X509v3 Subject Alternative Name: 
                DNS:localhost, DNS:host.docker.internal
    Signature Algorithm: sha256WithRSAEncryption
    Signature Value:
        65:f8:93:d3:e8:31:75:7c:9d:50:dd:c1:b1:4e:6b:97:68:97:
        06:6a:d9:08:58:fb:a5:06:86:55:bd:7e:b5:8b:f8:a4:fb:b8:
        37:ed:33:4b:90:c5:15:17:6b:0a:9a:ff:47:fc:d2:71:01:dc:
        ec:3c:d9:dd:6a:54:d0:2a:81:a4:34:39:ff:90:51:3e:f4:2a:
        2a:e2:04:78:81:88:23:ea:c9:d2:34:15:f2:bf:a7:6a:71:27:
        6f:c0:eb:6d:d2:82:d2:05:f1:8c:b4:3f:88:b6:da:d9:9b:d1:
        ca:19:81:bd:a0:b5:c1:28:12:47:79:de:9a:d8:2e:81:96:ff:
        0c:ae:f1:2f:00:a7:8a:a0:63:cc:74:6f:96:b5:1c:47:6d:e5:
        8b:bf:81:c8:67:59:d9:f2:1a:ba:1f:96:8c:2e:8b:5c:5e:31:
        6c:42:45:60:98:f6:b4:11:3d:77:8a:f8:2d:f7:39:79:d7:cf:
        33:1b:c4:97:99:51:45:65:e8:86:9e:6d:97:34:6c:ba:17:26:
        a7:e3:04:14:76:33:09:79:81:7e:7d:e5:b0:f3:3c:4d:1b:b8:
        bc:8c:cd:35:ce:51:38:68:b2:6a:87:7b:a7:b0:c7:3a:6b:28:
        f8:4e:a2:b2:09:6b:e0:40:f8:ad:ae:c7:32:71:99:72:f2:7a:
        bc:db:20:8c:4f:13:42:7f:78:38:77:5b:c0:83:4d:8e:5f:63:
        7b:6f:1b:76:bc:ec:b1:6a:de:75:45:bf:71:eb:60:86:39:1c:
        75:0e:14:03:99:91:62:de:31:9e:2b:85:42:20:82:44:73:65:
        85:65:ac:1d:a6:1d:11:1a:e9:18:a5:ac:9f:ce:7d:37:8c:24:
        9c:63:08:df:fb:82:ae:69:bb:a6:ce:05:35:3f:f5:56:55:5f:
        c9:99:4d:d8:e7:ee:e2:8e:ea:02:7f:0b:b7:2d:b3:ae:2d:a0:
        ff:8a:9e:fe:f5:be:99:be:f1:37:06:d3:ab:d9:fd:c9:ac:4f:
        11:6d:41:31:9a:f5:03:c0:a2:57:d5:06:56:22:64:c4:10:e1:
        43:b3:ac:95:bc:12:d6:a1:9d:16:1a:4a:1e:f4:47:0c:90:30:
        d1:00:87:f5:87:5e:8c:45:09:4a:3f:ea:b6:dd:f0:dd:ef:53:
        ba:67:a6:34:8e:38:2d:9b:22:9f:85:c6:8a:a5:0e:8e:21:73:
        9f:3d:2f:3e:87:2f:7d:03:81:1a:9d:ac:cb:1f:25:54:af:f0:
        4c:c5:a1:fa:7b:06:66:4e:c7:98:ff:e1:41:38:df:3c:4c:88:
        07:3e:8a:e0:9d:92:61:b0:60:20:2f:df:66:d1:d4:f0:d5:25:
        b7:c3:a1:5b:ea:ad:bc:e2
-----BEGIN CERTIFICATE-----
MIIE2jCCAsKgAwIBAgICEAgwDQYJKoZIhvcNAQELBQAwXTELMAkGA1UEBhMCQkUx
ETAPBgNVBAgMCEJlbGdpcXVlMQ4wDAYDVQQHDAVOYW11cjERMA8GA1UECgwIQ0Eg
SW50ZXIxGDAWBgNVBAMMD0ludGVybWVkaWF0ZSBDQTAeFw0yNTA2MTQwODMyMzha
Fw0yNjA2MTQwODMyMzhaMGExCzAJBgNVBAYTAkJFMREwDwYDVQQIDAhCZWxnaXF1
ZTEfMB0GA1UECgwWQVBJIGh0dHBzIGJhY2tlbmQgc2l0ZTEeMBwGA1UEAwwVYmFj
a2VuZHNpdGUubG9jYWxob3N0MIIBIjANBgkqhkiG9w0BAQEFAAOCAQ8AMIIBCgKC
AQEAzRZDMMYGcRDHOwqFvnM+Cn5fHETnI2bLlTZ6arQ+FEUauMroG2bOXMPLqRxy
vX8sJOJr/y3n363nazZGOPUmHyzR4SoO5D4iVlsq+o3+6PcV9VZVqGP1HiA7aqJw
1uyxubJizs5dv7O81LiIcDo9tOBB6R5LIEo23viXCMVRRPWJXSBADFO6G+9QtY6f
pqAiBkUShgPmDR/v/LbMgP9d1ZD4y3RlT8ZUvRMv5aGdYgIZg7ECXT3MA48pnc/t
NMairsqVXppTHCCKmKI8wcg24HtpUwJW1Rk/tbSgNgsPoD8HWu1Y0GGExwtlSL2U
Jzqt5VwFEPYiYWGdaKnUzXzZOQIDAQABo4GfMIGcMAkGA1UdEwQCMAAwDgYDVR0P
AQH/BAQDAgWgMBMGA1UdJQQMMAoGCCsGAQUFBwMBMB0GA1UdDgQWBBSr7Ih28rlR
XZvwKHCXnZDM6BlDlTAfBgNVHSMEGDAWgBRvFx0O05/yAjbMiL7aMQyx5KuKuDAq
BgNVHREEIzAhgglsb2NhbGhvc3SCFGhvc3QuZG9ja2VyLmludGVybmFsMA0GCSqG
SIb3DQEBCwUAA4ICAQBl+JPT6DF1fJ1Q3cGxTmuXaJcGatkIWPulBoZVvX61i/ik
+7g37TNLkMUVF2sKmv9H/NJxAdzsPNndalTQKoGkNDn/kFE+9Coq4gR4gYgj6snS
NBXyv6dqcSdvwOtt0oLSBfGMtD+IttrZm9HKGYG9oLXBKBJHed6a2C6Blv8MrvEv
AKeKoGPMdG+WtRxHbeWLv4HIZ1nZ8hq6H5aMLotcXjFsQkVgmPa0ET13ivgt9zl5
188zG8SXmVFFZeiGnm2XNGy6Fyan4wQUdjMJeYF+feWw8zxNG7i8jM01zlE4aLJq
h3unsMc6ayj4TqKyCWvgQPitrscycZly8nq82yCMTxNCf3g4d1vAg02OX2N7bxt2
vOyxat51Rb9x62CGORx1DhQDmZFi3jGeK4VCIIJEc2WFZawdph0RGukYpayfzn03
jCScYwjf+4KuabumzgU1P/VWVV/JmU3Y5+7ijuoCfwu3LbOuLaD/ip7+9b6ZvvE3
BtOr2f3JrE8RbUExmvUDwKJX1QZWImTEEOFDs6yVvBLWoZ0WGkoe9EcMkDDRAIf1
h16MRQlKP+q23fDd71O6Z6Y0jjgtmyKfhcaKpQ6OIXOfPS8+hy99A4EanazLHyVU
r/BMxaH6ewZmTseY/+FBON88TIgHPorgnZJhsGAgL99m0dTw1SW3w6Fb6q284g==
-----END CERTIFICATE-----
