Certificate:
    Data:
        Version: 3 (0x2)
        Serial Number: 4097 (0x1001)
    Signature Algorithm: sha256WithRSAEncryption
        Issuer: C=BE, ST=Belgique, L=Namur, O=CA Inter, CN=Intermediate CA
        Validity
            Not Before: Jun 12 14:59:57 2025 GMT
            Not After : Jun 12 14:59:57 2026 GMT
        Subject: CN=backend.localhost
        Subject Public Key Info:
            Public Key Algorithm: rsaEncryption
                RSA Public-Key: (4096 bit)
                Modulus:
                    00:c1:be:0f:89:6d:bd:9a:ce:b5:99:4c:f5:c6:f0:
                    1a:f7:d7:64:3a:db:76:e5:d8:20:97:18:e6:f0:10:
                    07:e6:77:f7:07:9e:58:4d:49:cc:01:43:49:42:60:
                    71:9f:8a:f2:fd:aa:60:ed:90:49:cf:c6:29:b7:a6:
                    07:e1:0c:bb:e5:6c:96:5d:3f:85:e5:fe:18:56:0a:
                    8e:3f:e6:4f:3e:5f:c1:ba:fa:b3:4b:d8:1e:fd:58:
                    08:60:44:8c:52:4f:3a:c9:f1:93:ba:3a:d7:96:fd:
                    7d:1b:e3:ed:07:1d:4c:92:d6:af:76:53:38:a1:8d:
                    ef:dc:a8:43:da:3a:60:62:76:8a:c9:d4:37:c4:7e:
                    2e:85:cc:e5:8b:09:f6:47:96:c6:46:b4:90:7a:a4:
                    af:92:e4:7b:89:4f:9e:59:b2:21:9e:4e:23:7e:ce:
                    f4:f5:43:4b:33:c5:b3:4a:6b:fe:a6:0a:99:b9:7e:
                    f7:96:1f:b0:a6:bc:c1:8e:15:3e:0c:e3:61:44:4b:
                    9e:8a:62:5c:6f:ff:5e:59:e4:13:aa:94:f8:7d:a2:
                    4a:f0:e2:36:18:ff:b6:6a:47:02:e1:ef:c3:ee:81:
                    53:fb:43:ff:ac:a2:14:61:21:68:8e:3e:d3:bd:40:
                    ff:00:72:c3:e0:fd:69:59:31:85:0e:7a:d3:49:64:
                    d8:ba:1d:21:c0:68:20:f7:cc:01:7d:a6:0d:a2:28:
                    2f:78:de:e4:92:ef:d0:cc:b5:9f:26:74:17:f5:bb:
                    bb:31:1b:86:f1:95:f6:76:41:22:4e:df:2d:81:13:
                    8a:6a:f8:df:f0:51:4d:b7:f2:2d:b2:6b:b2:0d:e1:
                    ca:71:7c:23:64:50:a6:c8:d7:e6:59:20:8e:4c:0c:
                    d4:82:9e:17:26:19:cc:ea:1f:e0:77:93:bc:7c:9d:
                    9b:f9:f5:02:81:6c:84:75:bc:b2:b1:18:e7:93:a9:
                    3c:46:85:32:fa:6c:5e:bf:fd:2e:a0:a0:46:db:4e:
                    95:c0:ca:68:01:dc:e2:48:1b:a6:80:71:cf:64:86:
                    67:bc:7c:1b:cf:66:59:14:dd:8e:34:7b:50:d5:e0:
                    a5:5d:9b:08:5e:d2:dc:17:97:1e:a4:fc:b7:a8:8c:
                    09:41:f6:78:83:e7:c5:58:be:ca:2c:58:03:90:99:
                    f6:c7:17:d6:f8:af:cc:eb:00:ca:f9:4a:0a:81:51:
                    9c:bc:73:48:12:e3:76:85:d7:8e:b7:02:b5:0d:37:
                    d2:3c:c5:a3:35:8f:47:28:d4:59:b5:83:d4:a8:47:
                    7e:58:62:a2:11:78:d9:10:f2:9b:f5:ac:18:e6:f5:
                    1b:87:41:35:0d:9b:f5:30:ca:22:0a:c2:7f:8c:d9:
                    83:0e:ef
                Exponent: 65537 (0x10001)
        X509v3 extensions:
            X509v3 Basic Constraints: 
                CA:FALSE
            X509v3 Key Usage: critical
                Digital Signature, Key Encipherment
            X509v3 Extended Key Usage: 
                TLS Web Server Authentication
            X509v3 Subject Key Identifier: 
                52:87:36:E9:74:88:FE:A7:D0:92:87:E4:04:1B:F3:30:A7:71:EC:59
            X509v3 Authority Key Identifier: 
                keyid:6F:17:1D:0E:D3:9F:F2:02:36:CC:88:BE:DA:31:0C:B1:E4:AB:8A:B8

            X509v3 Subject Alternative Name: 
                DNS:localhost, DNS:host.docker.internal
    Signature Algorithm: sha256WithRSAEncryption
         2c:b6:dd:82:5a:5d:c1:9a:98:8a:f9:6d:e3:f6:84:5c:07:30:
         34:79:53:c0:36:8d:de:c6:c8:7b:8f:75:ef:e4:9c:51:d5:30:
         ac:fe:1a:4d:c7:47:cd:c9:0c:89:0d:59:fa:6f:31:ab:c3:e4:
         4a:af:42:5b:4e:e4:21:f0:be:51:5c:89:b4:b3:40:8f:41:21:
         66:28:2b:75:8d:95:b9:86:ce:a9:d6:22:24:cb:1f:bd:dd:26:
         42:03:db:68:0f:63:d7:04:5c:4c:48:b2:3c:54:0c:0d:66:3b:
         52:a9:da:dc:7a:c0:90:aa:6c:c4:95:e9:a7:00:8f:f9:99:fa:
         88:9e:f3:35:c1:0f:26:2b:be:44:61:36:4c:61:5c:52:08:dc:
         d5:c4:51:aa:14:e8:06:63:8c:a8:c9:35:86:8d:95:36:73:65:
         9d:b6:5b:6d:7b:76:29:6c:30:06:2b:9d:13:62:3b:42:70:a7:
         0c:4c:06:68:11:77:42:2e:7c:11:70:3e:02:b5:b3:4a:8f:6c:
         da:fd:88:39:f4:73:e7:ab:37:33:dc:88:69:54:ec:27:82:b8:
         cc:62:e8:07:8e:07:8a:93:ba:39:fd:13:ca:dd:ed:a5:e5:1a:
         ce:45:e2:20:b5:7a:48:49:a7:5c:bc:5d:8a:f1:f6:87:ec:67:
         b8:b6:60:7a:24:d4:3d:8f:07:aa:74:70:68:78:b9:37:29:d8:
         24:ab:a4:ef:cf:92:b1:ac:97:5e:3a:8b:0a:7a:a8:af:7c:83:
         a0:b2:c1:c6:b1:c9:8a:4e:52:a8:24:4b:5b:9f:8c:6e:50:5f:
         c5:3e:9d:c5:81:aa:a5:73:74:9b:9e:2b:cd:a5:8c:01:79:1f:
         b7:9f:93:df:d3:2e:81:8d:78:99:25:16:e1:8e:7f:f6:cc:a9:
         d0:b3:e8:a5:92:1b:ff:65:d0:68:ba:49:a9:ba:c8:0b:a4:87:
         94:7c:6d:8f:79:7a:27:c4:7a:68:6a:c3:f2:32:59:b5:0f:32:
         84:cf:b6:60:3f:89:d0:52:03:f6:c4:46:ba:b9:8a:fb:03:15:
         ee:e2:ad:32:97:b7:16:e5:cb:3f:16:6b:8f:c7:17:16:da:a1:
         13:2d:13:30:dc:77:31:52:a7:91:3e:e3:37:1b:68:92:40:f0:
         ff:90:65:8c:9e:88:ff:1e:ce:c2:93:1e:3b:8d:64:63:1a:32:
         83:17:76:66:5f:58:9a:5a:18:9e:8b:d8:82:02:5b:da:82:7c:
         05:39:21:ea:55:a9:16:7f:c5:c6:10:5d:51:02:03:2d:ac:70:
         73:03:d8:dc:28:cf:f5:6e:8d:69:22:32:4f:fd:32:91:eb:6a:
         e2:6c:67:29:a6:38:b4:16
-----BEGIN CERTIFICATE-----
MIIFlTCCA32gAwIBAgICEAEwDQYJKoZIhvcNAQELBQAwXTELMAkGA1UEBhMCQkUx
ETAPBgNVBAgMCEJlbGdpcXVlMQ4wDAYDVQQHDAVOYW11cjERMA8GA1UECgwIQ0Eg
SW50ZXIxGDAWBgNVBAMMD0ludGVybWVkaWF0ZSBDQTAeFw0yNTA2MTIxNDU5NTda
Fw0yNjA2MTIxNDU5NTdaMBwxGjAYBgNVBAMMEWJhY2tlbmQubG9jYWxob3N0MIIC
IjANBgkqhkiG9w0BAQEFAAOCAg8AMIICCgKCAgEAwb4PiW29ms61mUz1xvAa99dk
Ott25dgglxjm8BAH5nf3B55YTUnMAUNJQmBxn4ry/apg7ZBJz8Ypt6YH4Qy75WyW
XT+F5f4YVgqOP+ZPPl/BuvqzS9ge/VgIYESMUk86yfGTujrXlv19G+PtBx1Mktav
dlM4oY3v3KhD2jpgYnaKydQ3xH4uhczliwn2R5bGRrSQeqSvkuR7iU+eWbIhnk4j
fs709UNLM8WzSmv+pgqZuX73lh+wprzBjhU+DONhREueimJcb/9eWeQTqpT4faJK
8OI2GP+2akcC4e/D7oFT+0P/rKIUYSFojj7TvUD/AHLD4P1pWTGFDnrTSWTYuh0h
wGgg98wBfaYNoigveN7kku/QzLWfJnQX9bu7MRuG8ZX2dkEiTt8tgROKavjf8FFN
t/ItsmuyDeHKcXwjZFCmyNfmWSCOTAzUgp4XJhnM6h/gd5O8fJ2b+fUCgWyEdbyy
sRjnk6k8RoUy+mxev/0uoKBG206VwMpoAdziSBumgHHPZIZnvHwbz2ZZFN2ONHtQ
1eClXZsIXtLcF5cepPy3qIwJQfZ4g+fFWL7KLFgDkJn2xxfW+K/M6wDK+UoKgVGc
vHNIEuN2hdeOtwK1DTfSPMWjNY9HKNRZtYPUqEd+WGKiEXjZEPKb9awY5vUbh0E1
DZv1MMoiCsJ/jNmDDu8CAwEAAaOBnzCBnDAJBgNVHRMEAjAAMA4GA1UdDwEB/wQE
AwIFoDATBgNVHSUEDDAKBggrBgEFBQcDATAdBgNVHQ4EFgQUUoc26XSI/qfQkofk
BBvzMKdx7FkwHwYDVR0jBBgwFoAUbxcdDtOf8gI2zIi+2jEMseSrirgwKgYDVR0R
BCMwIYIJbG9jYWxob3N0ghRob3N0LmRvY2tlci5pbnRlcm5hbDANBgkqhkiG9w0B
AQsFAAOCAgEALLbdglpdwZqYivlt4/aEXAcwNHlTwDaN3sbIe4917+ScUdUwrP4a
TcdHzckMiQ1Z+m8xq8PkSq9CW07kIfC+UVyJtLNAj0EhZigrdY2VuYbOqdYiJMsf
vd0mQgPbaA9j1wRcTEiyPFQMDWY7Uqna3HrAkKpsxJXppwCP+Zn6iJ7zNcEPJiu+
RGE2TGFcUgjc1cRRqhToBmOMqMk1ho2VNnNlnbZbbXt2KWwwBiudE2I7QnCnDEwG
aBF3Qi58EXA+ArWzSo9s2v2IOfRz56s3M9yIaVTsJ4K4zGLoB44HipO6Of0Tyt3t
peUazkXiILV6SEmnXLxdivH2h+xnuLZgeiTUPY8HqnRwaHi5NynYJKuk78+SsayX
XjqLCnqor3yDoLLBxrHJik5SqCRLW5+MblBfxT6dxYGqpXN0m54rzaWMAXkft5+T
39MugY14mSUW4Y5/9syp0LPopZIb/2XQaLpJqbrIC6SHlHxtj3l6J8R6aGrD8jJZ
tQ8yhM+2YD+J0FID9sRGurmK+wMV7uKtMpe3FuXLPxZrj8cXFtqhEy0TMNx3MVKn
kT7jNxtokkDw/5BljJ6I/x7OwpMeO41kYxoygxd2Zl9YmloYnovYggJb2oJ8BTkh
6lWpFn/FxhBdUQIDLaxwcwPY3CjP9W6NaSIyT/0yketq4mxnKaY4tBY=
-----END CERTIFICATE-----
